target datalayout = "e-m:e-p270:32:32-p271:32:32-p272:64:64-i64:64-i128:128-f80:128-n8:16:32:64-S128"
target triple = "x86_64-pc-linux-gnu"

; Function Attrs: nounwind uwtable
define internal void @horizontal_compose_dd137i_12bit(ptr noundef %0, ptr noundef %1, i32 noundef %2) #0 {
  %4 = alloca ptr, align 8
  %5 = alloca ptr, align 8
  %6 = alloca i32, align 4
  %7 = alloca i32, align 4
  %8 = alloca i32, align 4
  %9 = alloca ptr, align 8
  %10 = alloca ptr, align 8
  store ptr %0, ptr %4, align 8, !tbaa !44
  store ptr %1, ptr %5, align 8, !tbaa !44
  store i32 %2, ptr %6, align 4, !tbaa !11
  call void @llvm.lifetime.start.p0(i64 4, ptr %7) #5
  %11 = load i32, ptr %6, align 4, !tbaa !11
  %12 = ashr i32 %11, 1
  store i32 %12, ptr %7, align 4, !tbaa !11
  call void @llvm.lifetime.start.p0(i64 4, ptr %8) #5
  call void @llvm.lifetime.start.p0(i64 8, ptr %9) #5
  %13 = load ptr, ptr %4, align 8, !tbaa !44
  store ptr %13, ptr %9, align 8, !tbaa !91
  call void @llvm.lifetime.start.p0(i64 8, ptr %10) #5
  %14 = load ptr, ptr %5, align 8, !tbaa !44
  store ptr %14, ptr %10, align 8, !tbaa !91
  %15 = load ptr, ptr %9, align 8, !tbaa !91
  %16 = getelementptr inbounds i32, ptr %15, i64 0
  %17 = load i32, ptr %16, align 4, !tbaa !11
  %18 = load ptr, ptr %9, align 8, !tbaa !91
  %19 = load i32, ptr %7, align 4, !tbaa !11
  %20 = sext i32 %19 to i64
  %21 = getelementptr inbounds i32, ptr %18, i64 %20
  %22 = load i32, ptr %21, align 4, !tbaa !11
  %23 = mul i32 9, %22
  %24 = load ptr, ptr %9, align 8, !tbaa !91
  %25 = load i32, ptr %7, align 4, !tbaa !11
  %26 = sext i32 %25 to i64
  %27 = getelementptr inbounds i32, ptr %24, i64 %26
  %28 = load i32, ptr %27, align 4, !tbaa !11
  %29 = mul i32 9, %28
  %30 = add i32 %23, %29
  %31 = load ptr, ptr %9, align 8, !tbaa !91
  %32 = load i32, ptr %7, align 4, !tbaa !11
  %33 = add nsw i32 %32, 1
  %34 = sext i32 %33 to i64
  %35 = getelementptr inbounds i32, ptr %31, i64 %34
  %36 = load i32, ptr %35, align 4, !tbaa !11
  %37 = sub i32 %30, %36
  %38 = load ptr, ptr %9, align 8, !tbaa !91
  %39 = load i32, ptr %7, align 4, !tbaa !11
  %40 = sext i32 %39 to i64
  %41 = getelementptr inbounds i32, ptr %38, i64 %40
  %42 = load i32, ptr %41, align 4, !tbaa !11
  %43 = sub i32 %37, %42
  %44 = add i32 %43, 16
  %45 = ashr i32 %44, 5
  %46 = sub i32 %17, %45
  %47 = load ptr, ptr %10, align 8, !tbaa !91
  %48 = getelementptr inbounds i32, ptr %47, i64 0
  store i32 %46, ptr %48, align 4, !tbaa !11
  %49 = load ptr, ptr %9, align 8, !tbaa !91
  %50 = getelementptr inbounds i32, ptr %49, i64 1
  %51 = load i32, ptr %50, align 4, !tbaa !11
  %52 = load ptr, ptr %9, align 8, !tbaa !91
  %53 = load i32, ptr %7, align 4, !tbaa !11
  %54 = sext i32 %53 to i64
  %55 = getelementptr inbounds i32, ptr %52, i64 %54
  %56 = load i32, ptr %55, align 4, !tbaa !11
  %57 = mul i32 9, %56
  %58 = load ptr, ptr %9, align 8, !tbaa !91
  %59 = load i32, ptr %7, align 4, !tbaa !11
  %60 = add nsw i32 %59, 1
  %61 = sext i32 %60 to i64
  %62 = getelementptr inbounds i32, ptr %58, i64 %61
  %63 = load i32, ptr %62, align 4, !tbaa !11
  %64 = mul i32 9, %63
  %65 = add i32 %57, %64
  %66 = load ptr, ptr %9, align 8, !tbaa !91
  %67 = load i32, ptr %7, align 4, !tbaa !11
  %68 = add nsw i32 %67, 2
  %69 = sext i32 %68 to i64
  %70 = getelementptr inbounds i32, ptr %66, i64 %69
  %71 = load i32, ptr %70, align 4, !tbaa !11
  %72 = sub i32 %65, %71
  %73 = load ptr, ptr %9, align 8, !tbaa !91
  %74 = load i32, ptr %7, align 4, !tbaa !11
  %75 = sext i32 %74 to i64
  %76 = getelementptr inbounds i32, ptr %73, i64 %75
  %77 = load i32, ptr %76, align 4, !tbaa !11
  %78 = sub i32 %72, %77
  %79 = add i32 %78, 16
  %80 = ashr i32 %79, 5
  %81 = sub i32 %51, %80
  %82 = load ptr, ptr %10, align 8, !tbaa !91
  %83 = getelementptr inbounds i32, ptr %82, i64 1
  store i32 %81, ptr %83, align 4, !tbaa !11
  store i32 2, ptr %8, align 4, !tbaa !11
  br label %84

84:                                               ; preds = %138, %3
  %85 = load i32, ptr %8, align 4, !tbaa !11
  %86 = load i32, ptr %7, align 4, !tbaa !11
  %87 = sub nsw i32 %86, 1
  %88 = icmp slt i32 %85, %87
  br i1 %88, label %89, label %141

89:                                               ; preds = %84
  %90 = load ptr, ptr %9, align 8, !tbaa !91
  %91 = load i32, ptr %8, align 4, !tbaa !11
  %92 = sext i32 %91 to i64
  %93 = getelementptr inbounds i32, ptr %90, i64 %92
  %94 = load i32, ptr %93, align 4, !tbaa !11
  %95 = load ptr, ptr %9, align 8, !tbaa !91
  %96 = load i32, ptr %8, align 4, !tbaa !11
  %97 = load i32, ptr %7, align 4, !tbaa !11
  %98 = add nsw i32 %96, %97
  %99 = sub nsw i32 %98, 1
  %100 = sext i32 %99 to i64
  %101 = getelementptr inbounds i32, ptr %95, i64 %100
  %102 = load i32, ptr %101, align 4, !tbaa !11
  %103 = mul i32 9, %102
  %104 = load ptr, ptr %9, align 8, !tbaa !91
  %105 = load i32, ptr %8, align 4, !tbaa !11
  %106 = load i32, ptr %7, align 4, !tbaa !11
  %107 = add nsw i32 %105, %106
  %108 = sext i32 %107 to i64
  %109 = getelementptr inbounds i32, ptr %104, i64 %108
  %110 = load i32, ptr %109, align 4, !tbaa !11
  %111 = mul i32 9, %110
  %112 = add i32 %103, %111
  %113 = load ptr, ptr %9, align 8, !tbaa !91
  %114 = load i32, ptr %8, align 4, !tbaa !11
  %115 = load i32, ptr %7, align 4, !tbaa !11
  %116 = add nsw i32 %114, %115
  %117 = add nsw i32 %116, 1
  %118 = sext i32 %117 to i64
  %119 = getelementptr inbounds i32, ptr %113, i64 %118
  %120 = load i32, ptr %119, align 4, !tbaa !11
  %121 = sub i32 %112, %120
  %122 = load ptr, ptr %9, align 8, !tbaa !91
  %123 = load i32, ptr %8, align 4, !tbaa !11
  %124 = load i32, ptr %7, align 4, !tbaa !11
  %125 = add nsw i32 %123, %124
  %126 = sub nsw i32 %125, 2
  %127 = sext i32 %126 to i64
  %128 = getelementptr inbounds i32, ptr %122, i64 %127
  %129 = load i32, ptr %128, align 4, !tbaa !11
  %130 = sub i32 %121, %129
  %131 = add i32 %130, 16
  %132 = ashr i32 %131, 5
  %133 = sub i32 %94, %132
  %134 = load ptr, ptr %10, align 8, !tbaa !91
  %135 = load i32, ptr %8, align 4, !tbaa !11
  %136 = sext i32 %135 to i64
  %137 = getelementptr inbounds i32, ptr %134, i64 %136
  store i32 %133, ptr %137, align 4, !tbaa !11
  br label %138

138:                                              ; preds = %89
  %139 = load i32, ptr %8, align 4, !tbaa !11
  %140 = add nsw i32 %139, 1
  store i32 %140, ptr %8, align 4, !tbaa !11
  br label %84, !llvm.loop !137

141:                                              ; preds = %84
  %142 = load ptr, ptr %9, align 8, !tbaa !91
  %143 = load i32, ptr %7, align 4, !tbaa !11
  %144 = sub nsw i32 %143, 1
  %145 = sext i32 %144 to i64
  %146 = getelementptr inbounds i32, ptr %142, i64 %145
  %147 = load i32, ptr %146, align 4, !tbaa !11
  %148 = load ptr, ptr %9, align 8, !tbaa !91
  %149 = load i32, ptr %6, align 4, !tbaa !11
  %150 = sub nsw i32 %149, 2
  %151 = sext i32 %150 to i64
  %152 = getelementptr inbounds i32, ptr %148, i64 %151
  %153 = load i32, ptr %152, align 4, !tbaa !11
  %154 = mul i32 9, %153
  %155 = load ptr, ptr %9, align 8, !tbaa !91
  %156 = load i32, ptr %6, align 4, !tbaa !11
  %157 = sub nsw i32 %156, 1
  %158 = sext i32 %157 to i64
  %159 = getelementptr inbounds i32, ptr %155, i64 %158
  %160 = load i32, ptr %159, align 4, !tbaa !11
  %161 = mul i32 9, %160
  %162 = add i32 %154, %161
  %163 = load ptr, ptr %9, align 8, !tbaa !91
  %164 = load i32, ptr %6, align 4, !tbaa !11
  %165 = sub nsw i32 %164, 1
  %166 = sext i32 %165 to i64
  %167 = getelementptr inbounds i32, ptr %163, i64 %166
  %168 = load i32, ptr %167, align 4, !tbaa !11
  %169 = sub i32 %162, %168
  %170 = load ptr, ptr %9, align 8, !tbaa !91
  %171 = load i32, ptr %6, align 4, !tbaa !11
  %172 = sub nsw i32 %171, 3
  %173 = sext i32 %172 to i64
  %174 = getelementptr inbounds i32, ptr %170, i64 %173
  %175 = load i32, ptr %174, align 4, !tbaa !11
  %176 = sub i32 %169, %175
  %177 = add i32 %176, 16
  %178 = ashr i32 %177, 5
  %179 = sub i32 %147, %178
  %180 = load ptr, ptr %10, align 8, !tbaa !91
  %181 = load i32, ptr %7, align 4, !tbaa !11
  %182 = sub nsw i32 %181, 1
  %183 = sext i32 %182 to i64
  %184 = getelementptr inbounds i32, ptr %180, i64 %183
  store i32 %179, ptr %184, align 4, !tbaa !11
  %185 = load ptr, ptr %10, align 8, !tbaa !91
  %186 = getelementptr inbounds i32, ptr %185, i64 0
  %187 = load i32, ptr %186, align 4, !tbaa !11
  %188 = load ptr, ptr %10, align 8, !tbaa !91
  %189 = getelementptr inbounds i32, ptr %188, i64 -1
  store i32 %187, ptr %189, align 4, !tbaa !11
  %190 = load ptr, ptr %10, align 8, !tbaa !91
  %191 = load i32, ptr %7, align 4, !tbaa !11
  %192 = sub nsw i32 %191, 1
  %193 = sext i32 %192 to i64
  %194 = getelementptr inbounds i32, ptr %190, i64 %193
  %195 = load i32, ptr %194, align 4, !tbaa !11
  %196 = load ptr, ptr %10, align 8, !tbaa !91
  %197 = load i32, ptr %7, align 4, !tbaa !11
  %198 = sext i32 %197 to i64
  %199 = getelementptr inbounds i32, ptr %196, i64 %198
  store i32 %195, ptr %199, align 4, !tbaa !11
  %200 = load ptr, ptr %10, align 8, !tbaa !91
  %201 = load i32, ptr %7, align 4, !tbaa !11
  %202 = add nsw i32 %201, 1
  %203 = sext i32 %202 to i64
  %204 = getelementptr inbounds i32, ptr %200, i64 %203
  store i32 %195, ptr %204, align 4, !tbaa !11
  store i32 0, ptr %8, align 4, !tbaa !11
  br label %205

205:                                              ; preds = %268, %141
  %206 = load i32, ptr %8, align 4, !tbaa !11
  %207 = load i32, ptr %7, align 4, !tbaa !11
  %208 = icmp slt i32 %206, %207
  br i1 %208, label %209, label %271

209:                                              ; preds = %205
  %210 = load ptr, ptr %10, align 8, !tbaa !91
  %211 = load i32, ptr %8, align 4, !tbaa !11
  %212 = sext i32 %211 to i64
  %213 = getelementptr inbounds i32, ptr %210, i64 %212
  %214 = load i32, ptr %213, align 4, !tbaa !11
  %215 = add i32 %214, 1
  %216 = ashr i32 %215, 1
  %217 = load ptr, ptr %9, align 8, !tbaa !91
  %218 = load i32, ptr %8, align 4, !tbaa !11
  %219 = mul nsw i32 2, %218
  %220 = sext i32 %219 to i64
  %221 = getelementptr inbounds i32, ptr %217, i64 %220
  store i32 %216, ptr %221, align 4, !tbaa !11
  %222 = load ptr, ptr %9, align 8, !tbaa !91
  %223 = load i32, ptr %8, align 4, !tbaa !11
  %224 = load i32, ptr %7, align 4, !tbaa !11
  %225 = add nsw i32 %223, %224
  %226 = sext i32 %225 to i64
  %227 = getelementptr inbounds i32, ptr %222, i64 %226
  %228 = load i32, ptr %227, align 4, !tbaa !11
  %229 = load ptr, ptr %10, align 8, !tbaa !91
  %230 = load i32, ptr %8, align 4, !tbaa !11
  %231 = sext i32 %230 to i64
  %232 = getelementptr inbounds i32, ptr %229, i64 %231
  %233 = load i32, ptr %232, align 4, !tbaa !11
  %234 = mul i32 9, %233
  %235 = load ptr, ptr %10, align 8, !tbaa !91
  %236 = load i32, ptr %8, align 4, !tbaa !11
  %237 = add nsw i32 %236, 1
  %238 = sext i32 %237 to i64
  %239 = getelementptr inbounds i32, ptr %235, i64 %238
  %240 = load i32, ptr %239, align 4, !tbaa !11
  %241 = mul i32 9, %240
  %242 = add i32 %234, %241
  %243 = load ptr, ptr %10, align 8, !tbaa !91
  %244 = load i32, ptr %8, align 4, !tbaa !11
  %245 = add nsw i32 %244, 2
  %246 = sext i32 %245 to i64
  %247 = getelementptr inbounds i32, ptr %243, i64 %246
  %248 = load i32, ptr %247, align 4, !tbaa !11
  %249 = sub i32 %242, %248
  %250 = load ptr, ptr %10, align 8, !tbaa !91
  %251 = load i32, ptr %8, align 4, !tbaa !11
  %252 = sub nsw i32 %251, 1
  %253 = sext i32 %252 to i64
  %254 = getelementptr inbounds i32, ptr %250, i64 %253
  %255 = load i32, ptr %254, align 4, !tbaa !11
  %256 = sub i32 %249, %255
  %257 = add i32 %256, 8
  %258 = ashr i32 %257, 4
  %259 = add i32 %228, %258
  %260 = add i32 %259, 1
  %261 = ashr i32 %260, 1
  %262 = load ptr, ptr %9, align 8, !tbaa !91
  %263 = load i32, ptr %8, align 4, !tbaa !11
  %264 = mul nsw i32 2, %263
  %265 = add nsw i32 %264, 1
  %266 = sext i32 %265 to i64
  %267 = getelementptr inbounds i32, ptr %262, i64 %266
  store i32 %261, ptr %267, align 4, !tbaa !11
  br label %268

268:                                              ; preds = %209
  %269 = load i32, ptr %8, align 4, !tbaa !11
  %270 = add nsw i32 %269, 1
  store i32 %270, ptr %8, align 4, !tbaa !11
  br label %205, !llvm.loop !138

271:                                              ; preds = %205
  call void @llvm.lifetime.end.p0(i64 8, ptr %10) #5
  call void @llvm.lifetime.end.p0(i64 8, ptr %9) #5
  call void @llvm.lifetime.end.p0(i64 4, ptr %8) #5
  call void @llvm.lifetime.end.p0(i64 4, ptr %7) #5
  ret void
}