; Function Attrs: nofree norecurse nosync nounwind memory(argmem: readwrite) uwtable
define internal void @horizontal_compose_dd137i_12bit(ptr noundef captures(none) %0, ptr noundef captures(none) initializes((0, 8)) %1, i32 noundef %2) #3 {
  %4 = ashr i32 %2, 1
  %5 = load i32, ptr %0, align 4, !tbaa !70
  %6 = sext i32 %4 to i64
  %7 = getelementptr inbounds i32, ptr %0, i64 %6
  %8 = load i32, ptr %7, align 4, !tbaa !70
  %9 = mul i32 %8, 18
  %10 = add nsw i32 %4, 1
  %11 = sext i32 %10 to i64
  %12 = getelementptr inbounds i32, ptr %0, i64 %11
  %13 = load i32, ptr %12, align 4, !tbaa !70
  %14 = add i32 %8, %13
  %reass.sub = sub i32 %9, %14
  %15 = add i32 %reass.sub, 16
  %16 = ashr i32 %15, 5
  %17 = sub i32 %5, %16
  store i32 %17, ptr %1, align 4, !tbaa !70
  %18 = getelementptr inbounds nuw i8, ptr %0, i64 4
  %19 = load i32, ptr %18, align 4, !tbaa !70
  %20 = load i32, ptr %7, align 4, !tbaa !70
  %21 = load i32, ptr %12, align 4, !tbaa !70
  %22 = add i32 %21, %20
  %23 = mul i32 %22, 9
  %24 = getelementptr i8, ptr %7, i64 8
  %25 = load i32, ptr %24, align 4, !tbaa !70
  %26 = add i32 %20, %25
  %reass.sub102 = sub i32 %23, %26
  %27 = add i32 %reass.sub102, 16
  %28 = ashr i32 %27, 5
  %29 = sub i32 %19, %28
  %30 = getelementptr inbounds nuw i8, ptr %1, i64 4
  store i32 %29, ptr %30, align 4, !tbaa !70
  %31 = add nsw i32 %4, -1
  %32 = icmp sgt i32 %4, 3
  br i1 %32, label %.lr.ph.preheader, label %._crit_edge

.lr.ph.preheader:                                 ; preds = %3
  %33 = zext nneg i32 %4 to i64
  %wide.trip.count = zext nneg i32 %31 to i64
  %invariant.gep = getelementptr i32, ptr %0, i64 %33
  br label %.lr.ph

.lr.ph:                                           ; preds = %.lr.ph.preheader, %.lr.ph
  %indvars.iv = phi i64 [ 2, %.lr.ph.preheader ], [ %indvars.iv.next, %.lr.ph ]
  %34 = getelementptr inbounds nuw i32, ptr %0, i64 %indvars.iv
  %35 = load i32, ptr %34, align 4, !tbaa !70
  %gep = getelementptr i32, ptr %invariant.gep, i64 %indvars.iv
  %36 = getelementptr i8, ptr %gep, i64 -4
  %37 = load i32, ptr %36, align 4, !tbaa !70
  %38 = load i32, ptr %gep, align 4, !tbaa !70
  %39 = add i32 %38, %37
  %40 = mul i32 %39, 9
  %41 = getelementptr i8, ptr %gep, i64 4
  %42 = load i32, ptr %41, align 4, !tbaa !70
  %43 = getelementptr i8, ptr %gep, i64 -8
  %44 = load i32, ptr %43, align 4, !tbaa !70
  %45 = add i32 %42, %44
  %reass.sub103 = sub i32 %40, %45
  %46 = add i32 %reass.sub103, 16
  %47 = ashr i32 %46, 5
  %48 = sub i32 %35, %47
  %49 = getelementptr inbounds nuw i32, ptr %1, i64 %indvars.iv
  store i32 %48, ptr %49, align 4, !tbaa !70
  %indvars.iv.next = add nuw nsw i64 %indvars.iv, 1
  %exitcond.not = icmp eq i64 %indvars.iv.next, %wide.trip.count
  br i1 %exitcond.not, label %._crit_edge, label %.lr.ph, !llvm.loop !108

._crit_edge:                                      ; preds = %.lr.ph, %3
  %50 = sext i32 %31 to i64
  %51 = getelementptr inbounds i32, ptr %0, i64 %50
  %52 = load i32, ptr %51, align 4, !tbaa !70
  %53 = sext i32 %2 to i64
  %54 = getelementptr i32, ptr %0, i64 %53
  %55 = getelementptr i8, ptr %54, i64 -8
  %56 = load i32, ptr %55, align 4, !tbaa !70
  %57 = getelementptr i8, ptr %54, i64 -4
  %58 = load i32, ptr %57, align 4, !tbaa !70
  %59 = add i32 %58, %56
  %60 = mul i32 %59, 9
  %61 = getelementptr i8, ptr %54, i64 -12
  %62 = load i32, ptr %61, align 4, !tbaa !70
  %63 = add i32 %58, %62
  %reass.sub104 = sub i32 %60, %63
  %64 = add i32 %reass.sub104, 16
  %65 = ashr i32 %64, 5
  %66 = sub i32 %52, %65
  %67 = getelementptr inbounds i32, ptr %1, i64 %50
  store i32 %66, ptr %67, align 4, !tbaa !70
  %68 = load i32, ptr %1, align 4, !tbaa !70
  %69 = getelementptr inbounds i8, ptr %1, i64 -4
  store i32 %68, ptr %69, align 4, !tbaa !70
  %70 = load i32, ptr %67, align 4, !tbaa !70
  %71 = getelementptr inbounds i32, ptr %1, i64 %6
  store i32 %70, ptr %71, align 4, !tbaa !70
  %72 = getelementptr inbounds i32, ptr %1, i64 %11
  store i32 %70, ptr %72, align 4, !tbaa !70
  %73 = icmp sgt i32 %4, 0
  br i1 %73, label %.lr.ph100.preheader, label %._crit_edge101

.lr.ph100.preheader:                              ; preds = %._crit_edge
  %74 = zext nneg i32 %4 to i64
  %invariant.gep112 = getelementptr inbounds nuw i32, ptr %0, i64 %74
  br label %.lr.ph100

.lr.ph100:                                        ; preds = %.lr.ph100.preheader, %.lr.ph100
  %indvars.iv107 = phi i64 [ 0, %.lr.ph100.preheader ], [ %indvars.iv.next108, %.lr.ph100 ]
  %75 = getelementptr inbounds nuw i32, ptr %1, i64 %indvars.iv107
  %76 = load i32, ptr %75, align 4, !tbaa !70
  %77 = add i32 %76, 1
  %78 = ashr i32 %77, 1
  %.idx = shl nuw nsw i64 %indvars.iv107, 3
  %79 = getelementptr inbounds nuw i8, ptr %0, i64 %.idx
  store i32 %78, ptr %79, align 4, !tbaa !70
  %gep113 = getelementptr inbounds nuw i32, ptr %invariant.gep112, i64 %indvars.iv107
  %80 = load i32, ptr %gep113, align 4, !tbaa !70
  %81 = load i32, ptr %75, align 4, !tbaa !70
  %indvars.iv.next108 = add nuw nsw i64 %indvars.iv107, 1
  %82 = getelementptr inbounds nuw i32, ptr %1, i64 %indvars.iv.next108
  %83 = load i32, ptr %82, align 4, !tbaa !70
  %84 = add i32 %83, %81
  %85 = mul i32 %84, 9
  %86 = getelementptr inbounds nuw i8, ptr %75, i64 8
  %87 = load i32, ptr %86, align 4, !tbaa !70
  %88 = getelementptr i8, ptr %75, i64 -4
  %89 = load i32, ptr %88, align 4, !tbaa !70
  %90 = add i32 %87, %89
  %reass.sub105 = sub i32 %85, %90
  %91 = add i32 %reass.sub105, 8
  %92 = ashr i32 %91, 4
  %93 = add i32 %80, 1
  %94 = add i32 %93, %92
  %95 = ashr i32 %94, 1
  %96 = getelementptr inbounds nuw i8, ptr %79, i64 4
  store i32 %95, ptr %96, align 4, !tbaa !70
  %exitcond111.not = icmp eq i64 %indvars.iv.next108, %74
  br i1 %exitcond111.not, label %._crit_edge101, label %.lr.ph100, !llvm.loop !109

._crit_edge101:                                   ; preds = %.lr.ph100, %._crit_edge
  ret void
}